(lp0
(lp1
S'QATESP064902'
p2
aS'Alpana'
p3
aS'Spain'
p4
aS'N'
p5
aS'23'
p6
aa(lp7
S'ETIESP047202'
p8
aS'Uddeshya'
p9
aS'Spain'
p10
aS'N'
p11
aS'23'
p12
aa(lp13
S'ETICHI529601'
p14
aS'Brijesh'
p15
aS'china'
p16
aS'N'
p17
aS'22'
p18
aa.